target datalayout = "e-m:e-p270:32:32-p271:32:32-p272:64:64-i64:64-i128:128-f80:128-n8:16:32:64-S128"
target triple = "x86_64-pc-linux-gnu"

%struct.ASN1_TLC_st = type { i8, i32, i64, i32, i32, i32 }

@.str = private unnamed_addr constant [126 x i8] c"generated/home/dtcxzyw/WorkSpace/Projects/compilers/llvm-opt-benchmark/bench/libquic/libquic/boringssl/crypto/asn1/tasn_dec.c\00", align 1

; Function Attrs: nounwind uwtable
define internal i32 @asn1_check_tlen(ptr noundef %0, ptr noundef %1, ptr noundef %2, ptr noundef %3, ptr noundef %4, ptr noundef %5, i64 noundef %6, i32 noundef %7, i32 noundef %8, i8 noundef signext %9, ptr noundef %10) #0 {
  %12 = alloca i32, align 4
  %13 = alloca ptr, align 8
  %14 = alloca ptr, align 8
  %15 = alloca ptr, align 8
  %16 = alloca ptr, align 8
  %17 = alloca ptr, align 8
  %18 = alloca ptr, align 8
  %19 = alloca i64, align 8
  %20 = alloca i32, align 4
  %21 = alloca i32, align 4
  %22 = alloca i8, align 1
  %23 = alloca ptr, align 8
  %24 = alloca i32, align 4
  %25 = alloca i32, align 4
  %26 = alloca i32, align 4
  %27 = alloca i64, align 8
  %28 = alloca ptr, align 8
  %29 = alloca ptr, align 8
  %30 = alloca i32, align 4
  store ptr %0, ptr %13, align 8, !tbaa !63
  store ptr %1, ptr %14, align 8, !tbaa !65
  store ptr %2, ptr %15, align 8, !tbaa !33
  store ptr %3, ptr %16, align 8, !tbaa !33
  store ptr %4, ptr %17, align 8, !tbaa !33
  store ptr %5, ptr %18, align 8, !tbaa !15
  store i64 %6, ptr %19, align 8, !tbaa !10
  store i32 %7, ptr %20, align 4, !tbaa !6
  store i32 %8, ptr %21, align 4, !tbaa !6
  store i8 %9, ptr %22, align 1, !tbaa !23
  store ptr %10, ptr %23, align 8, !tbaa !24
  call void @llvm.lifetime.start.p0(i64 4, ptr %24) #6
  call void @llvm.lifetime.start.p0(i64 4, ptr %25) #6
  call void @llvm.lifetime.start.p0(i64 4, ptr %26) #6
  call void @llvm.lifetime.start.p0(i64 8, ptr %27) #6
  call void @llvm.lifetime.start.p0(i64 8, ptr %28) #6
  call void @llvm.lifetime.start.p0(i64 8, ptr %29) #6
  %31 = load ptr, ptr %18, align 8, !tbaa !15
  %32 = load ptr, ptr %31, align 8, !tbaa !33
  store ptr %32, ptr %28, align 8, !tbaa !33
  %33 = load ptr, ptr %28, align 8, !tbaa !33
  store ptr %33, ptr %29, align 8, !tbaa !33
  %34 = load ptr, ptr %23, align 8, !tbaa !24
  %35 = icmp ne ptr %34, null
  br i1 %35, label %36, label %61

36:                                               ; preds = %11
  %37 = load ptr, ptr %23, align 8, !tbaa !24
  %38 = getelementptr inbounds nuw %struct.ASN1_TLC_st, ptr %37, i32 0, i32 0
  %39 = load i8, ptr %38, align 8, !tbaa !21
  %40 = sext i8 %39 to i32
  %41 = icmp ne i32 %40, 0
  br i1 %41, label %42, label %61

42:                                               ; preds = %36
  %43 = load ptr, ptr %23, align 8, !tbaa !24
  %44 = getelementptr inbounds nuw %struct.ASN1_TLC_st, ptr %43, i32 0, i32 1
  %45 = load i32, ptr %44, align 4, !tbaa !67
  store i32 %45, ptr %24, align 4, !tbaa !6
  %46 = load ptr, ptr %23, align 8, !tbaa !24
  %47 = getelementptr inbounds nuw %struct.ASN1_TLC_st, ptr %46, i32 0, i32 2
  %48 = load i64, ptr %47, align 8, !tbaa !68
  store i64 %48, ptr %27, align 8, !tbaa !10
  %49 = load ptr, ptr %23, align 8, !tbaa !24
  %50 = getelementptr inbounds nuw %struct.ASN1_TLC_st, ptr %49, i32 0, i32 4
  %51 = load i32, ptr %50, align 4, !tbaa !69
  store i32 %51, ptr %26, align 4, !tbaa !6
  %52 = load ptr, ptr %23, align 8, !tbaa !24
  %53 = getelementptr inbounds nuw %struct.ASN1_TLC_st, ptr %52, i32 0, i32 3
  %54 = load i32, ptr %53, align 8, !tbaa !70
  store i32 %54, ptr %25, align 4, !tbaa !6
  %55 = load ptr, ptr %23, align 8, !tbaa !24
  %56 = getelementptr inbounds nuw %struct.ASN1_TLC_st, ptr %55, i32 0, i32 5
  %57 = load i32, ptr %56, align 8, !tbaa !71
  %58 = load ptr, ptr %28, align 8, !tbaa !33
  %59 = sext i32 %57 to i64
  %60 = getelementptr inbounds i8, ptr %58, i64 %59
  store ptr %60, ptr %28, align 8, !tbaa !33
  br label %110

61:                                               ; preds = %36, %11
  %62 = load i64, ptr %19, align 8, !tbaa !10
  %63 = call i32 @ASN1_get_object(ptr noundef %28, ptr noundef %27, ptr noundef %25, ptr noundef %26, i64 noundef %62)
  store i32 %63, ptr %24, align 4, !tbaa !6
  %64 = load ptr, ptr %23, align 8, !tbaa !24
  %65 = icmp ne ptr %64, null
  br i1 %65, label %66, label %109

66:                                               ; preds = %61
  %67 = load i32, ptr %24, align 4, !tbaa !6
  %68 = load ptr, ptr %23, align 8, !tbaa !24
  %69 = getelementptr inbounds nuw %struct.ASN1_TLC_st, ptr %68, i32 0, i32 1
  store i32 %67, ptr %69, align 4, !tbaa !67
  %70 = load i64, ptr %27, align 8, !tbaa !10
  %71 = load ptr, ptr %23, align 8, !tbaa !24
  %72 = getelementptr inbounds nuw %struct.ASN1_TLC_st, ptr %71, i32 0, i32 2
  store i64 %70, ptr %72, align 8, !tbaa !68
  %73 = load i32, ptr %26, align 4, !tbaa !6
  %74 = load ptr, ptr %23, align 8, !tbaa !24
  %75 = getelementptr inbounds nuw %struct.ASN1_TLC_st, ptr %74, i32 0, i32 4
  store i32 %73, ptr %75, align 4, !tbaa !69
  %76 = load i32, ptr %25, align 4, !tbaa !6
  %77 = load ptr, ptr %23, align 8, !tbaa !24
  %78 = getelementptr inbounds nuw %struct.ASN1_TLC_st, ptr %77, i32 0, i32 3
  store i32 %76, ptr %78, align 8, !tbaa !70
  %79 = load ptr, ptr %28, align 8, !tbaa !33
  %80 = load ptr, ptr %29, align 8, !tbaa !33
  %81 = ptrtoint ptr %79 to i64
  %82 = ptrtoint ptr %80 to i64
  %83 = sub i64 %81, %82
  %84 = trunc i64 %83 to i32
  %85 = load ptr, ptr %23, align 8, !tbaa !24
  %86 = getelementptr inbounds nuw %struct.ASN1_TLC_st, ptr %85, i32 0, i32 5
  store i32 %84, ptr %86, align 8, !tbaa !71
  %87 = load ptr, ptr %23, align 8, !tbaa !24
  %88 = getelementptr inbounds nuw %struct.ASN1_TLC_st, ptr %87, i32 0, i32 0
  store i8 1, ptr %88, align 8, !tbaa !21
  %89 = load i32, ptr %24, align 4, !tbaa !6
  %90 = and i32 %89, 129
  %91 = icmp ne i32 %90, 0
  br i1 %91, label %108, label %92

92:                                               ; preds = %66
  %93 = load i64, ptr %27, align 8, !tbaa !10
  %94 = load ptr, ptr %23, align 8, !tbaa !24
  %95 = getelementptr inbounds nuw %struct.ASN1_TLC_st, ptr %94, i32 0, i32 5
  %96 = load i32, ptr %95, align 8, !tbaa !71
  %97 = sext i32 %96 to i64
  %98 = add nsw i64 %93, %97
  %99 = load i64, ptr %19, align 8, !tbaa !10
  %100 = icmp sgt i64 %98, %99
  br i1 %100, label %101, label %108

101:                                              ; preds = %92
  call void @ERR_put_error(i32 noundef 12, i32 noundef 0, i32 noundef 177, ptr noundef @.str, i32 noundef 1171)
  %102 = load ptr, ptr %23, align 8, !tbaa !24
  %103 = icmp ne ptr %102, null
  br i1 %103, label %104, label %107

104:                                              ; preds = %101
  %105 = load ptr, ptr %23, align 8, !tbaa !24
  %106 = getelementptr inbounds nuw %struct.ASN1_TLC_st, ptr %105, i32 0, i32 0
  store i8 0, ptr %106, align 8, !tbaa !21
  br label %107

107:                                              ; preds = %104, %101
  store i32 0, ptr %12, align 4
  store i32 1, ptr %30, align 4
  br label %200

108:                                              ; preds = %92, %66
  br label %109

109:                                              ; preds = %108, %61
  br label %110

110:                                              ; preds = %109, %42
  %111 = load i32, ptr %24, align 4, !tbaa !6
  %112 = and i32 %111, 128
  %113 = icmp ne i32 %112, 0
  br i1 %113, label %114, label %121

114:                                              ; preds = %110
  call void @ERR_put_error(i32 noundef 12, i32 noundef 0, i32 noundef 103, ptr noundef @.str, i32 noundef 1179)
  %115 = load ptr, ptr %23, align 8, !tbaa !24
  %116 = icmp ne ptr %115, null
  br i1 %116, label %117, label %120

117:                                              ; preds = %114
  %118 = load ptr, ptr %23, align 8, !tbaa !24
  %119 = getelementptr inbounds nuw %struct.ASN1_TLC_st, ptr %118, i32 0, i32 0
  store i8 0, ptr %119, align 8, !tbaa !21
  br label %120

120:                                              ; preds = %117, %114
  store i32 0, ptr %12, align 4
  store i32 1, ptr %30, align 4
  br label %200

121:                                              ; preds = %110
  %122 = load i32, ptr %20, align 4, !tbaa !6
  %123 = icmp sge i32 %122, 0
  br i1 %123, label %124, label %150

124:                                              ; preds = %121
  %125 = load i32, ptr %20, align 4, !tbaa !6
  %126 = load i32, ptr %25, align 4, !tbaa !6
  %127 = icmp ne i32 %125, %126
  br i1 %127, label %132, label %128

128:                                              ; preds = %124
  %129 = load i32, ptr %21, align 4, !tbaa !6
  %130 = load i32, ptr %26, align 4, !tbaa !6
  %131 = icmp ne i32 %129, %130
  br i1 %131, label %132, label %143

132:                                              ; preds = %128, %124
  %133 = load i8, ptr %22, align 1, !tbaa !23
  %134 = icmp ne i8 %133, 0
  br i1 %134, label %135, label %136

135:                                              ; preds = %132
  store i32 -1, ptr %12, align 4
  store i32 1, ptr %30, align 4
  br label %200

136:                                              ; preds = %132
  %137 = load ptr, ptr %23, align 8, !tbaa !24
  %138 = icmp ne ptr %137, null
  br i1 %138, label %139, label %142

139:                                              ; preds = %136
  %140 = load ptr, ptr %23, align 8, !tbaa !24
  %141 = getelementptr inbounds nuw %struct.ASN1_TLC_st, ptr %140, i32 0, i32 0
  store i8 0, ptr %141, align 8, !tbaa !21
  br label %142

142:                                              ; preds = %139, %136
  call void @ERR_put_error(i32 noundef 12, i32 noundef 0, i32 noundef 190, ptr noundef @.str, i32 noundef 1191)
  store i32 0, ptr %12, align 4
  store i32 1, ptr %30, align 4
  br label %200

143:                                              ; preds = %128
  %144 = load ptr, ptr %23, align 8, !tbaa !24
  %145 = icmp ne ptr %144, null
  br i1 %145, label %146, label %149

146:                                              ; preds = %143
  %147 = load ptr, ptr %23, align 8, !tbaa !24
  %148 = getelementptr inbounds nuw %struct.ASN1_TLC_st, ptr %147, i32 0, i32 0
  store i8 0, ptr %148, align 8, !tbaa !21
  br label %149

149:                                              ; preds = %146, %143
  br label %150

150:                                              ; preds = %149, %121
  %151 = load i32, ptr %24, align 4, !tbaa !6
  %152 = and i32 %151, 1
  %153 = icmp ne i32 %152, 0
  br i1 %153, label %154, label %162

154:                                              ; preds = %150
  %155 = load i64, ptr %19, align 8, !tbaa !10
  %156 = load ptr, ptr %28, align 8, !tbaa !33
  %157 = load ptr, ptr %29, align 8, !tbaa !33
  %158 = ptrtoint ptr %156 to i64
  %159 = ptrtoint ptr %157 to i64
  %160 = sub i64 %158, %159
  %161 = sub nsw i64 %155, %160
  store i64 %161, ptr %27, align 8, !tbaa !10
  br label %162

162:                                              ; preds = %154, %150
  %163 = load ptr, ptr %16, align 8, !tbaa !33
  %164 = icmp ne ptr %163, null
  br i1 %164, label %165, label %170

165:                                              ; preds = %162
  %166 = load i32, ptr %24, align 4, !tbaa !6
  %167 = and i32 %166, 1
  %168 = trunc i32 %167 to i8
  %169 = load ptr, ptr %16, align 8, !tbaa !33
  store i8 %168, ptr %169, align 1, !tbaa !23
  br label %170

170:                                              ; preds = %165, %162
  %171 = load ptr, ptr %17, align 8, !tbaa !33
  %172 = icmp ne ptr %171, null
  br i1 %172, label %173, label %178

173:                                              ; preds = %170
  %174 = load i32, ptr %24, align 4, !tbaa !6
  %175 = and i32 %174, 32
  %176 = trunc i32 %175 to i8
  %177 = load ptr, ptr %17, align 8, !tbaa !33
  store i8 %176, ptr %177, align 1, !tbaa !23
  br label %178

178:                                              ; preds = %173, %170
  %179 = load ptr, ptr %13, align 8, !tbaa !63
  %180 = icmp ne ptr %179, null
  br i1 %180, label %181, label %184

181:                                              ; preds = %178
  %182 = load i64, ptr %27, align 8, !tbaa !10
  %183 = load ptr, ptr %13, align 8, !tbaa !63
  store i64 %182, ptr %183, align 8, !tbaa !10
  br label %184

184:                                              ; preds = %181, %178
  %185 = load ptr, ptr %15, align 8, !tbaa !33
  %186 = icmp ne ptr %185, null
  br i1 %186, label %187, label %191

187:                                              ; preds = %184
  %188 = load i32, ptr %26, align 4, !tbaa !6
  %189 = trunc i32 %188 to i8
  %190 = load ptr, ptr %15, align 8, !tbaa !33
  store i8 %189, ptr %190, align 1, !tbaa !23
  br label %191

191:                                              ; preds = %187, %184
  %192 = load ptr, ptr %14, align 8, !tbaa !65
  %193 = icmp ne ptr %192, null
  br i1 %193, label %194, label %197

194:                                              ; preds = %191
  %195 = load i32, ptr %25, align 4, !tbaa !6
  %196 = load ptr, ptr %14, align 8, !tbaa !65
  store i32 %195, ptr %196, align 4, !tbaa !6
  br label %197

197:                                              ; preds = %194, %191
  %198 = load ptr, ptr %28, align 8, !tbaa !33
  %199 = load ptr, ptr %18, align 8, !tbaa !15
  store ptr %198, ptr %199, align 8, !tbaa !33
  store i32 1, ptr %12, align 4
  store i32 1, ptr %30, align 4
  br label %200

200:                                              ; preds = %197, %142, %135, %120, %107
  call void @llvm.lifetime.end.p0(i64 8, ptr %29) #6
  call void @llvm.lifetime.end.p0(i64 8, ptr %28) #6
  call void @llvm.lifetime.end.p0(i64 8, ptr %27) #6
  call void @llvm.lifetime.end.p0(i64 4, ptr %26) #6
  call void @llvm.lifetime.end.p0(i64 4, ptr %25) #6
  call void @llvm.lifetime.end.p0(i64 4, ptr %24) #6
  %201 = load i32, ptr %12, align 4
  ret i32 %201
}