; Function Attrs: nounwind uwtable
define internal fastcc range(i32 -1, 2) i32 @asn1_check_tlen(ptr noundef writeonly captures(address_is_null) %0, ptr noundef writeonly captures(address_is_null) %1, ptr noundef writeonly captures(address_is_null) %2, ptr noundef writeonly captures(address_is_null) %3, ptr noundef writeonly captures(address_is_null) %4, ptr noundef nonnull captures(none) %5, i64 noundef %6, i32 noundef %7, i32 noundef %8, i8 noundef signext %9, ptr noundef captures(address_is_null) %10) unnamed_addr #1 {
  %12 = alloca i32, align 4
  %13 = alloca i32, align 4
  %14 = alloca i64, align 8
  %15 = alloca ptr, align 8
  call void @llvm.lifetime.start.p0(i64 4, ptr nonnull %12) #7
  call void @llvm.lifetime.start.p0(i64 4, ptr nonnull %13) #7
  call void @llvm.lifetime.start.p0(i64 8, ptr nonnull %14) #7
  call void @llvm.lifetime.start.p0(i64 8, ptr nonnull %15) #7
  %16 = load ptr, ptr %5, align 8, !tbaa !20
  store ptr %16, ptr %15, align 8, !tbaa !20
  %.not = icmp eq ptr %10, null
  br i1 %.not, label %.thread70, label %17

17:                                               ; preds = %11
  %18 = load i8, ptr %10, align 8, !tbaa !13
  %.not58 = icmp eq i8 %18, 0
  br i1 %.not58, label %32, label %19

19:                                               ; preds = %17
  %20 = getelementptr inbounds nuw i8, ptr %10, i64 4
  %21 = load i32, ptr %20, align 4, !tbaa !49
  %22 = getelementptr inbounds nuw i8, ptr %10, i64 8
  %23 = load i64, ptr %22, align 8, !tbaa !50
  store i64 %23, ptr %14, align 8, !tbaa !6
  %24 = getelementptr inbounds nuw i8, ptr %10, i64 20
  %25 = load i32, ptr %24, align 4, !tbaa !51
  store i32 %25, ptr %13, align 4, !tbaa !26
  %26 = getelementptr inbounds nuw i8, ptr %10, i64 16
  %27 = load i32, ptr %26, align 8, !tbaa !52
  store i32 %27, ptr %12, align 4, !tbaa !26
  %28 = getelementptr inbounds nuw i8, ptr %10, i64 24
  %29 = load i32, ptr %28, align 8, !tbaa !53
  %30 = sext i32 %29 to i64
  %31 = getelementptr inbounds i8, ptr %16, i64 %30
  store ptr %31, ptr %15, align 8, !tbaa !20
  br label %53

32:                                               ; preds = %17
  %33 = call i32 @ASN1_get_object(ptr noundef nonnull %15, ptr noundef nonnull %14, ptr noundef nonnull %12, ptr noundef nonnull %13, i64 noundef %6) #7
  %34 = getelementptr inbounds nuw i8, ptr %10, i64 4
  store i32 %33, ptr %34, align 4, !tbaa !49
  %35 = load i64, ptr %14, align 8, !tbaa !6
  %36 = getelementptr inbounds nuw i8, ptr %10, i64 8
  store i64 %35, ptr %36, align 8, !tbaa !50
  %37 = load i32, ptr %13, align 4, !tbaa !26
  %38 = getelementptr inbounds nuw i8, ptr %10, i64 20
  store i32 %37, ptr %38, align 4, !tbaa !51
  %39 = load i32, ptr %12, align 4, !tbaa !26
  %40 = getelementptr inbounds nuw i8, ptr %10, i64 16
  store i32 %39, ptr %40, align 8, !tbaa !52
  %41 = load ptr, ptr %15, align 8, !tbaa !20
  %42 = ptrtoint ptr %41 to i64
  %43 = ptrtoint ptr %16 to i64
  %44 = sub i64 %42, %43
  %45 = trunc i64 %44 to i32
  %46 = getelementptr inbounds nuw i8, ptr %10, i64 24
  store i32 %45, ptr %46, align 8, !tbaa !53
  store i8 1, ptr %10, align 8, !tbaa !13
  %47 = and i32 %33, 129
  %.not59 = icmp eq i32 %47, 0
  br i1 %.not59, label %48, label %53

48:                                               ; preds = %32
  %sext = shl i64 %44, 32
  %49 = ashr exact i64 %sext, 32
  %50 = add nsw i64 %49, %35
  %51 = icmp sgt i64 %50, %6
  br i1 %51, label %52, label %53

52:                                               ; preds = %48
  call void @ERR_put_error(i32 noundef 12, i32 noundef 0, i32 noundef 177, ptr noundef nonnull @.str, i32 noundef 1171) #7
  store i8 0, ptr %10, align 8, !tbaa !13
  br label %95

53:                                               ; preds = %48, %32, %19
  %.050 = phi i32 [ %21, %19 ], [ %33, %32 ], [ %33, %48 ]
  %54 = and i32 %.050, 128
  %.not60 = icmp eq i32 %54, 0
  br i1 %.not60, label %58, label %57

.thread70:                                        ; preds = %11
  %55 = call i32 @ASN1_get_object(ptr noundef nonnull %15, ptr noundef nonnull %14, ptr noundef nonnull %12, ptr noundef nonnull %13, i64 noundef %6) #7
  %56 = and i32 %55, 128
  %.not6072 = icmp eq i32 %56, 0
  br i1 %.not6072, label %58, label %.thread74

.thread74:                                        ; preds = %.thread70
  call void @ERR_put_error(i32 noundef 12, i32 noundef 0, i32 noundef 103, ptr noundef nonnull @.str, i32 noundef 1179) #7
  br label %95

57:                                               ; preds = %53
  call void @ERR_put_error(i32 noundef 12, i32 noundef 0, i32 noundef 103, ptr noundef nonnull @.str, i32 noundef 1179) #7
  store i8 0, ptr %10, align 8, !tbaa !13
  br label %95

58:                                               ; preds = %.thread70, %53
  %.05073 = phi i32 [ %55, %.thread70 ], [ %.050, %53 ]
  %59 = icmp sgt i32 %7, -1
  br i1 %59, label %60, label %69

60:                                               ; preds = %58
  %61 = load i32, ptr %12, align 4, !tbaa !26
  %.not61 = icmp eq i32 %7, %61
  %62 = load i32, ptr %13, align 4
  %.not62 = icmp eq i32 %8, %62
  %or.cond = select i1 %.not61, i1 %.not62, i1 false
  br i1 %or.cond, label %67, label %63

63:                                               ; preds = %60
  %.not69 = icmp eq i8 %9, 0
  br i1 %.not69, label %64, label %95

64:                                               ; preds = %63
  br i1 %.not, label %66, label %65

65:                                               ; preds = %64
  store i8 0, ptr %10, align 8, !tbaa !13
  br label %66

66:                                               ; preds = %65, %64
  call void @ERR_put_error(i32 noundef 12, i32 noundef 0, i32 noundef 190, ptr noundef nonnull @.str, i32 noundef 1191) #7
  br label %95

67:                                               ; preds = %60
  br i1 %.not, label %69, label %68

68:                                               ; preds = %67
  store i8 0, ptr %10, align 8, !tbaa !13
  br label %69

69:                                               ; preds = %67, %68, %58
  %70 = and i32 %.05073, 1
  %.not63 = icmp eq i32 %70, 0
  br i1 %.not63, label %76, label %71

71:                                               ; preds = %69
  %72 = load ptr, ptr %15, align 8, !tbaa !20
  %73 = ptrtoint ptr %72 to i64
  %74 = ptrtoint ptr %16 to i64
  %.neg = add i64 %6, %74
  %75 = sub i64 %.neg, %73
  store i64 %75, ptr %14, align 8, !tbaa !6
  br label %76

76:                                               ; preds = %71, %69
  %.not64 = icmp eq ptr %3, null
  br i1 %.not64, label %79, label %77

77:                                               ; preds = %76
  %78 = trunc nuw nsw i32 %70 to i8
  store i8 %78, ptr %3, align 1, !tbaa !25
  br label %79

79:                                               ; preds = %77, %76
  %.not65 = icmp eq ptr %4, null
  br i1 %.not65, label %83, label %80

80:                                               ; preds = %79
  %81 = trunc i32 %.05073 to i8
  %82 = and i8 %81, 32
  store i8 %82, ptr %4, align 1, !tbaa !25
  br label %83

83:                                               ; preds = %80, %79
  %.not66 = icmp eq ptr %0, null
  br i1 %.not66, label %86, label %84

84:                                               ; preds = %83
  %85 = load i64, ptr %14, align 8, !tbaa !6
  store i64 %85, ptr %0, align 8, !tbaa !6
  br label %86

86:                                               ; preds = %84, %83
  %.not67 = icmp eq ptr %2, null
  br i1 %.not67, label %90, label %87

87:                                               ; preds = %86
  %88 = load i32, ptr %13, align 4, !tbaa !26
  %89 = trunc i32 %88 to i8
  store i8 %89, ptr %2, align 1, !tbaa !25
  br label %90

90:                                               ; preds = %87, %86
  %.not68 = icmp eq ptr %1, null
  br i1 %.not68, label %93, label %91

91:                                               ; preds = %90
  %92 = load i32, ptr %12, align 4, !tbaa !26
  store i32 %92, ptr %1, align 4, !tbaa !26
  br label %93

93:                                               ; preds = %91, %90
  %94 = load ptr, ptr %15, align 8, !tbaa !20
  store ptr %94, ptr %5, align 8, !tbaa !20
  br label %95

95:                                               ; preds = %.thread74, %63, %57, %93, %66, %52
  %.0 = phi i32 [ 0, %66 ], [ 1, %93 ], [ 0, %52 ], [ 0, %57 ], [ -1, %63 ], [ 0, %.thread74 ]
  call void @llvm.lifetime.end.p0(i64 8, ptr nonnull %15) #7
  call void @llvm.lifetime.end.p0(i64 8, ptr nonnull %14) #7
  call void @llvm.lifetime.end.p0(i64 4, ptr nonnull %13) #7
  call void @llvm.lifetime.end.p0(i64 4, ptr nonnull %12) #7
  ret i32 %.0
}